target datalayout = "e-m:e-p270:32:32-p271:32:32-p272:64:64-i64:64-i128:128-f80:128-n8:16:32:64-S128"
target triple = "x86_64-pc-linux-gnu"

%struct.Curl_easy = type { i32, i64, i64, ptr, %struct.Curl_llist_node, %struct.Curl_llist_node, i32, i32, %struct.Curl_message, %struct.easy_pollset, %struct.Names, ptr, ptr, ptr, %struct.SingleRequest, %struct.UserDefined, ptr, ptr, %struct.Progress, %struct.UrlState, ptr, %struct.PureInfo, %struct.curl_tlssessioninfo }
%struct.Curl_llist_node = type { ptr, ptr, ptr, ptr }
%struct.Curl_message = type { %struct.Curl_llist_node, %struct.CURLMsg }
%struct.CURLMsg = type { i32, ptr, %union.anon }
%union.anon = type { ptr }
%struct.easy_pollset = type { [5 x i32], i32, [5 x i8] }
%struct.Names = type { ptr, i32 }
%struct.SingleRequest = type <{ i64, i64, i64, i64, %struct.curltime, i32, i32, i32, i32, i64, i32, i32, i32, i32, ptr, ptr, %struct.bufq, i64, i64, ptr, ptr, %union.anon.0, ptr, i8, i32, [3 x i8] }>
%struct.curltime = type { i64, i32 }
%struct.bufq = type { ptr, ptr, ptr, ptr, i64, i64, i64, i32 }
%union.anon.0 = type { ptr }
%struct.UserDefined = type <{ ptr, ptr, ptr, ptr, ptr, ptr, i16, [6 x i8], i64, i64, i64, ptr, ptr, i64, i16, i16, [4 x i8], ptr, ptr, ptr, ptr, ptr, ptr, ptr, ptr, ptr, ptr, ptr, ptr, ptr, ptr, ptr, ptr, ptr, ptr, ptr, ptr, ptr, ptr, ptr, i32, i32, i32, i32, i32, [4 x i8], i64, i64, i64, i64, i64, i64, i64, i64, ptr, ptr, %struct.curl_mimepart, ptr, ptr, i64, i8, i8, i8, [5 x i8], %struct.ssl_config_data, %struct.ssl_config_data, ptr, i16, i8, i8, [4 x i8], %struct.ssl_general_config, i32, i32, i32, [4 x i8], ptr, ptr, i8, [7 x i8], i64, i8, i8, i8, i8, i32, ptr, ptr, ptr, i8, i8, [2 x i8], i32, [63 x ptr], [8 x ptr], i32, i32, i32, [4 x i8], ptr, ptr, ptr, ptr, ptr, i8, [3 x i8], i32, i32, i32, i64, %struct.Curl_data_priority, ptr, ptr, i64, ptr, i64, ptr, ptr, ptr, i8, [3 x i8], i32, i8, i8, i64, [6 x i8] }>
%struct.curl_mimepart = type { ptr, ptr, i32, i32, ptr, ptr, ptr, ptr, ptr, ptr, ptr, ptr, ptr, ptr, ptr, i64, %struct.mime_state, ptr, %struct.mime_encoder_state, i64 }
%struct.mime_state = type { i32, ptr, i64 }
%struct.mime_encoder_state = type { i64, i64, i64, [256 x i8] }
%struct.ssl_config_data = type { %struct.ssl_primary_config, i64, ptr, ptr, ptr, ptr, ptr, ptr, ptr, i16 }
%struct.ssl_primary_config = type { ptr, ptr, ptr, ptr, ptr, ptr, ptr, ptr, ptr, ptr, ptr, ptr, i8, i32, i8, i8 }
%struct.ssl_general_config = type { i64, i32 }
%struct.Curl_data_priority = type { ptr, ptr, i32, i8 }
%struct.Progress = type { i64, %struct.pgrs_dir, %struct.pgrs_dir, i64, i64, i32, i32, i64, i64, i64, i64, i64, i64, i64, i64, i64, %struct.curltime, %struct.curltime, %struct.curltime, %struct.curltime, [6 x i64], [6 x %struct.curltime], i32, i8 }
%struct.pgrs_dir = type { i64, i64, i64, %struct.pgrs_measure }
%struct.pgrs_measure = type { %struct.curltime, i64 }
%struct.UrlState = type { %struct.curltime, i64, i64, %struct.dynbuf, ptr, i64, ptr, i32, i32, i32, ptr, i64, i32, i64, i32, ptr, %struct.digestdata, %struct.digestdata, %struct.auth, %struct.auth, %struct.Curl_async, ptr, %struct.curltime, %struct.Curl_tree, %struct.Curl_llist, [15 x %struct.time_node], ptr, ptr, i64, i64, %struct.Curl_data_priority, ptr, ptr, ptr, %struct.urlpieces, ptr, ptr, ptr, ptr, ptr, i64, %struct.dynbuf, %struct.Curl_llist, [2 x %struct.curl_header], ptr, i32, ptr, ptr, %struct.store_netrc, %struct.dynamically_allocated_data, i8, i8, i8, i8, i32 }
%struct.digestdata = type { ptr, ptr, ptr, ptr, ptr, ptr, i32, i8, i8 }
%struct.auth = type { i64, i64, i64, i8 }
%struct.Curl_async = type { ptr, ptr, ptr, ptr, i32, i32, i8 }
%struct.Curl_tree = type { ptr, ptr, ptr, ptr, %struct.curltime, ptr }
%struct.time_node = type { %struct.Curl_llist_node, %struct.curltime, i32 }
%struct.urlpieces = type { ptr, ptr, ptr, ptr, ptr, ptr, ptr, ptr }
%struct.dynbuf = type { ptr, i64, i64, i64 }
%struct.Curl_llist = type { ptr, ptr, ptr, i64 }
%struct.curl_header = type { ptr, ptr, i64, i64, i32, ptr }
%struct.store_netrc = type { %struct.dynbuf, ptr, i8 }
%struct.dynamically_allocated_data = type { ptr, ptr, ptr, ptr, ptr, ptr, ptr, ptr, ptr, ptr, ptr, ptr, ptr }
%struct.PureInfo = type { i32, i32, i32, i64, i64, i64, i64, i64, ptr, ptr, i64, i32, %struct.ip_quadruple, i32, ptr, i32, %struct.curl_certinfo, i32, i8 }
%struct.ip_quadruple = type { [46 x i8], [46 x i8], i32, i32 }
%struct.curl_certinfo = type { i32, ptr }
%struct.curl_tlssessioninfo = type { i32, ptr }

@Curl_cfree = external global ptr, align 8
@.str.33 = private unnamed_addr constant [1 x i8] zeroinitializer, align 1
@.str.69 = private unnamed_addr constant [3 x i8] c"TE\00", align 1
@.str.70 = private unnamed_addr constant [11 x i8] c"Connection\00", align 1
@.str.71 = private unnamed_addr constant [31 x i8] c"Connection: %s%sTE\0D\0ATE: gzip\0D\0A\00", align 1
@.str.72 = private unnamed_addr constant [3 x i8] c", \00", align 1

; Function Attrs: nounwind uwtable
define dso_local i32 @Curl_transferencode(ptr noundef %0) #0 {
  %2 = alloca i32, align 4
  %3 = alloca ptr, align 8
  %4 = alloca ptr, align 8
  %5 = alloca i32, align 4
  store ptr %0, ptr %3, align 8, !tbaa !4
  %6 = load ptr, ptr %3, align 8, !tbaa !4
  %7 = call ptr @Curl_checkheaders(ptr noundef %6, ptr noundef @.str.69, i64 noundef 2)
  %8 = icmp ne ptr %7, null
  br i1 %8, label %79, label %9

9:                                                ; preds = %1
  %10 = load ptr, ptr %3, align 8, !tbaa !4
  %11 = getelementptr inbounds nuw %struct.Curl_easy, ptr %10, i32 0, i32 15
  %12 = getelementptr inbounds nuw %struct.UserDefined, ptr %11, i32 0, i32 124
  %13 = load i64, ptr %12, align 2
  %14 = lshr i64 %13, 21
  %15 = and i64 %14, 1
  %16 = trunc i64 %15 to i32
  %17 = icmp ne i32 %16, 0
  br i1 %17, label %18, label %79

18:                                               ; preds = %9
  call void @llvm.lifetime.start.p0(i64 8, ptr %4) #6
  %19 = load ptr, ptr %3, align 8, !tbaa !4
  %20 = call ptr @Curl_checkheaders(ptr noundef %19, ptr noundef @.str.70, i64 noundef 10)
  store ptr %20, ptr %4, align 8, !tbaa !83
  br label %21

21:                                               ; preds = %18
  %22 = load ptr, ptr @Curl_cfree, align 8, !tbaa !97
  %23 = load ptr, ptr %3, align 8, !tbaa !4
  %24 = getelementptr inbounds nuw %struct.Curl_easy, ptr %23, i32 0, i32 19
  %25 = getelementptr inbounds nuw %struct.UrlState, ptr %24, i32 0, i32 49
  %26 = getelementptr inbounds nuw %struct.dynamically_allocated_data, ptr %25, i32 0, i32 7
  %27 = load ptr, ptr %26, align 8, !tbaa !107
  call void %22(ptr noundef %27)
  %28 = load ptr, ptr %3, align 8, !tbaa !4
  %29 = getelementptr inbounds nuw %struct.Curl_easy, ptr %28, i32 0, i32 19
  %30 = getelementptr inbounds nuw %struct.UrlState, ptr %29, i32 0, i32 49
  %31 = getelementptr inbounds nuw %struct.dynamically_allocated_data, ptr %30, i32 0, i32 7
  store ptr null, ptr %31, align 8, !tbaa !107
  br label %32

32:                                               ; preds = %21
  br label %33

33:                                               ; preds = %32
  %34 = load ptr, ptr %4, align 8, !tbaa !83
  %35 = icmp ne ptr %34, null
  br i1 %35, label %36, label %43

36:                                               ; preds = %33
  %37 = load ptr, ptr %4, align 8, !tbaa !83
  %38 = call ptr @Curl_copy_header_value(ptr noundef %37)
  store ptr %38, ptr %4, align 8, !tbaa !83
  %39 = load ptr, ptr %4, align 8, !tbaa !83
  %40 = icmp ne ptr %39, null
  br i1 %40, label %42, label %41

41:                                               ; preds = %36
  store i32 27, ptr %2, align 4
  store i32 1, ptr %5, align 4
  br label %76

42:                                               ; preds = %36
  br label %43

43:                                               ; preds = %42, %33
  %44 = load ptr, ptr %4, align 8, !tbaa !83
  %45 = icmp ne ptr %44, null
  br i1 %45, label %46, label %48

46:                                               ; preds = %43
  %47 = load ptr, ptr %4, align 8, !tbaa !83
  br label %49

48:                                               ; preds = %43
  br label %49

49:                                               ; preds = %48, %46
  %50 = phi ptr [ %47, %46 ], [ @.str.33, %48 ]
  %51 = load ptr, ptr %4, align 8, !tbaa !83
  %52 = icmp ne ptr %51, null
  br i1 %52, label %53, label %58

53:                                               ; preds = %49
  %54 = load ptr, ptr %4, align 8, !tbaa !83
  %55 = load i8, ptr %54, align 1, !tbaa !105
  %56 = sext i8 %55 to i32
  %57 = icmp ne i32 %56, 0
  br label %58

58:                                               ; preds = %53, %49
  %59 = phi i1 [ false, %49 ], [ %57, %53 ]
  %60 = select i1 %59, ptr @.str.72, ptr @.str.33
  %61 = call ptr (ptr, ...) @curl_maprintf(ptr noundef @.str.71, ptr noundef %50, ptr noundef %60)
  %62 = load ptr, ptr %3, align 8, !tbaa !4
  %63 = getelementptr inbounds nuw %struct.Curl_easy, ptr %62, i32 0, i32 19
  %64 = getelementptr inbounds nuw %struct.UrlState, ptr %63, i32 0, i32 49
  %65 = getelementptr inbounds nuw %struct.dynamically_allocated_data, ptr %64, i32 0, i32 7
  store ptr %61, ptr %65, align 8, !tbaa !107
  %66 = load ptr, ptr @Curl_cfree, align 8, !tbaa !97
  %67 = load ptr, ptr %4, align 8, !tbaa !83
  call void %66(ptr noundef %67)
  %68 = load ptr, ptr %3, align 8, !tbaa !4
  %69 = getelementptr inbounds nuw %struct.Curl_easy, ptr %68, i32 0, i32 19
  %70 = getelementptr inbounds nuw %struct.UrlState, ptr %69, i32 0, i32 49
  %71 = getelementptr inbounds nuw %struct.dynamically_allocated_data, ptr %70, i32 0, i32 7
  %72 = load ptr, ptr %71, align 8, !tbaa !107
  %73 = icmp ne ptr %72, null
  br i1 %73, label %75, label %74

74:                                               ; preds = %58
  store i32 27, ptr %2, align 4
  store i32 1, ptr %5, align 4
  br label %76

75:                                               ; preds = %58
  store i32 0, ptr %5, align 4
  br label %76

76:                                               ; preds = %75, %74, %41
  call void @llvm.lifetime.end.p0(i64 8, ptr %4) #6
  %77 = load i32, ptr %5, align 4
  switch i32 %77, label %82 [
    i32 0, label %78
    i32 1, label %80
  ]

78:                                               ; preds = %76
  br label %79

79:                                               ; preds = %78, %9, %1
  store i32 0, ptr %2, align 4
  br label %80

80:                                               ; preds = %79, %76
  %81 = load i32, ptr %2, align 4
  ret i32 %81

82:                                               ; preds = %76
  unreachable
}