; Function Attrs: nounwind uwtable
define dso_local range(i32 0, 28) i32 @Curl_transferencode(ptr noundef %0) local_unnamed_addr #0 {
  %2 = tail call ptr @Curl_checkheaders(ptr noundef %0, ptr noundef nonnull @.str.69, i64 noundef 2) #11
  %.not = icmp eq ptr %2, null
  br i1 %.not, label %3, label %22

3:                                                ; preds = %1
  %4 = getelementptr inbounds nuw i8, ptr %0, i64 2562
  %5 = load i64, ptr %4, align 2
  %6 = and i64 %5, 2097152
  %.not21 = icmp eq i64 %6, 0
  br i1 %.not21, label %22, label %7

7:                                                ; preds = %3
  %8 = tail call ptr @Curl_checkheaders(ptr noundef nonnull %0, ptr noundef nonnull @.str.70, i64 noundef 10) #11
  %9 = load ptr, ptr @Curl_cfree, align 8, !tbaa !90
  %10 = getelementptr inbounds nuw i8, ptr %0, i64 4824
  %11 = load ptr, ptr %10, align 8, !tbaa !106
  tail call void %9(ptr noundef %11) #11
  store ptr null, ptr %10, align 8, !tbaa !106
  %.not22 = icmp eq ptr %8, null
  br i1 %.not22, label %.thread, label %12

12:                                               ; preds = %7
  %13 = tail call ptr @Curl_copy_header_value(ptr noundef nonnull %8)
  %.not23 = icmp eq ptr %13, null
  br i1 %.not23, label %.thread30, label %14

14:                                               ; preds = %12
  %15 = load i8, ptr %13, align 1, !tbaa !105
  %.not25 = icmp eq i8 %15, 0
  %16 = select i1 %.not25, ptr @.str.33, ptr @.str.72
  br label %.thread

.thread:                                          ; preds = %7, %14
  %17 = phi ptr [ %13, %14 ], [ @.str.33, %7 ]
  %.01629 = phi ptr [ %13, %14 ], [ null, %7 ]
  %18 = phi ptr [ %16, %14 ], [ @.str.33, %7 ]
  %19 = tail call ptr (ptr, ...) @curl_maprintf(ptr noundef nonnull @.str.71, ptr noundef nonnull %17, ptr noundef nonnull %18) #11
  store ptr %19, ptr %10, align 8, !tbaa !106
  %20 = load ptr, ptr @Curl_cfree, align 8, !tbaa !90
  tail call void %20(ptr noundef %.01629) #11
  %21 = load ptr, ptr %10, align 8, !tbaa !106
  %.not26.not = icmp eq ptr %21, null
  br i1 %.not26.not, label %.thread30, label %22

22:                                               ; preds = %.thread, %3, %1
  br label %.thread30

.thread30:                                        ; preds = %12, %.thread, %22
  %.1 = phi i32 [ 0, %22 ], [ 27, %.thread ], [ 27, %12 ]
  ret i32 %.1
}